; Function Attrs: nounwind uwtable
define ptr @l_Lean_Meta_IndPredBelow_mkContext_motiveType(ptr noundef %0, ptr noundef %1, ptr noundef %2, ptr noundef %3, ptr noundef %4, ptr noundef %5) local_unnamed_addr #0 {
  %7 = getelementptr inbounds nuw i8, ptr %0, i64 8
  %8 = load ptr, ptr %7, align 8, !tbaa !4
  %9 = ptrtoint ptr %8 to i64
  %10 = and i64 %9, 1
  %.not = icmp eq i64 %10, 0
  br i1 %.not, label %11, label %lean_inc.exit15

11:                                               ; preds = %6
  %.val.i = load i32, ptr %8, align 4, !tbaa !12
  %12 = icmp sgt i32 %.val.i, 0
  br i1 %12, label %13, label %15, !prof !11

13:                                               ; preds = %11
  %14 = add nuw i32 %.val.i, 1
  store i32 %14, ptr %8, align 4, !tbaa !12
  br label %lean_inc.exit15

15:                                               ; preds = %11
  %.not.i16 = icmp eq i32 %.val.i, 0
  br i1 %.not.i16, label %lean_inc.exit15, label %16

16:                                               ; preds = %15
  tail call void @lean_inc_ref_cold(ptr noundef nonnull %8) #6
  br label %lean_inc.exit15

lean_inc.exit15:                                  ; preds = %16, %15, %13, %6
  %17 = getelementptr inbounds nuw i8, ptr %8, i64 24
  %18 = load ptr, ptr %17, align 8, !tbaa !4
  %19 = ptrtoint ptr %18 to i64
  %20 = and i64 %19, 1
  %.not20 = icmp eq i64 %20, 0
  br i1 %.not20, label %21, label %lean_inc.exit

21:                                               ; preds = %lean_inc.exit15
  %.val.i17 = load i32, ptr %18, align 4, !tbaa !12
  %22 = icmp sgt i32 %.val.i17, 0
  br i1 %22, label %23, label %25, !prof !11

23:                                               ; preds = %21
  %24 = add nuw i32 %.val.i17, 1
  store i32 %24, ptr %18, align 4, !tbaa !12
  br label %lean_inc.exit

25:                                               ; preds = %21
  %.not.i18 = icmp eq i32 %.val.i17, 0
  br i1 %.not.i18, label %lean_inc.exit, label %26

26:                                               ; preds = %25
  tail call void @lean_inc_ref_cold(ptr noundef nonnull %18) #6
  br label %lean_inc.exit

lean_inc.exit:                                    ; preds = %26, %25, %23, %lean_inc.exit15
  br i1 %.not, label %27, label %lean_dec.exit

27:                                               ; preds = %lean_inc.exit
  %28 = load i32, ptr %8, align 4, !tbaa !12
  %29 = icmp sgt i32 %28, 1
  br i1 %29, label %30, label %32, !prof !11

30:                                               ; preds = %27
  %31 = add nsw i32 %28, -1
  store i32 %31, ptr %8, align 4, !tbaa !12
  br label %lean_dec.exit

32:                                               ; preds = %27
  %.not.i = icmp eq i32 %28, 0
  br i1 %.not.i, label %lean_dec.exit, label %33

33:                                               ; preds = %32
  tail call void @lean_dec_ref_cold(ptr noundef nonnull %8) #6
  br label %lean_dec.exit

lean_dec.exit:                                    ; preds = %33, %32, %30, %lean_inc.exit
  tail call void @lean_inc_heartbeat() #6
  %34 = tail call noalias ptr @mi_malloc_small(i64 noundef 32) #6
  %35 = icmp eq ptr %34, null
  br i1 %35, label %36, label %lean_alloc_closure.exit

36:                                               ; preds = %lean_dec.exit
  tail call void @lean_internal_panic_out_of_memory() #7
  unreachable

lean_alloc_closure.exit:                          ; preds = %lean_dec.exit
  %37 = getelementptr inbounds nuw i8, ptr %34, i64 4
  store i32 1, ptr %34, align 4, !tbaa !12
  store i32 -184549344, ptr %37, align 4
  %38 = getelementptr inbounds nuw i8, ptr %34, i64 8
  store ptr @l_Lean_Meta_IndPredBelow_mkContext_motiveType___lambda__1___boxed, ptr %38, align 8, !tbaa !4
  %39 = getelementptr inbounds nuw i8, ptr %34, i64 16
  store i16 8, ptr %39, align 8, !tbaa !15
  %40 = getelementptr inbounds nuw i8, ptr %34, i64 18
  store i16 1, ptr %40, align 2, !tbaa !15
  %41 = getelementptr inbounds nuw i8, ptr %34, i64 24
  store ptr %0, ptr %41, align 8, !tbaa !4
  %42 = tail call ptr @l_Lean_Meta_forallTelescopeReducing___at_Lean_Meta_getParamNames___spec__2___rarg(ptr noundef %18, ptr noundef nonnull %34, i8 noundef zeroext 0, ptr noundef %1, ptr noundef %2, ptr noundef %3, ptr noundef %4, ptr noundef %5) #6
  ret ptr %42
}